; Function Attrs: nounwind uwtable
define noundef i32 @messageHasFilename(ptr noundef %0) local_unnamed_addr #2 {
  %2 = tail call fastcc i32 @messageHasArgument(ptr noundef %0, ptr noundef nonnull @.str.18), !range !4
  %.not = icmp eq i32 %2, 0
  br i1 %.not, label %3, label %5

3:                                                ; preds = %1
  %4 = tail call fastcc i32 @messageHasArgument(ptr noundef %0, ptr noundef nonnull @.str.36), !range !4
  br label %5

5:                                                ; preds = %3, %1
  %6 = phi i32 [ 1, %1 ], [ %4, %3 ]
  ret i32 %6
}